; Function Attrs: mustprogress nofree nounwind uwtable
define void @_Z26ImFormatStringToTempBufferPPKcS1_S0_z(ptr noundef writeonly captures(none) initializes((0, 8)) %0, ptr noundef %1, ptr noundef readonly captures(none) %2, ...) local_unnamed_addr #23 {
  %4 = alloca [1 x %struct.__va_list_tag], align 16
  call void @llvm.lifetime.start.p0(i64 24, ptr nonnull %4) #44
  call void @llvm.va_start.p0(ptr nonnull %4)
  call void @_Z27ImFormatStringToTempBufferVPPKcS1_S0_P13__va_list_tag(ptr noundef %0, ptr noundef %1, ptr noundef %2, ptr noundef nonnull %4)
  call void @llvm.va_end.p0(ptr nonnull %4)
  call void @llvm.lifetime.end.p0(i64 24, ptr nonnull %4) #44
  ret void
}